; Function Attrs: nounwind sspstrong uwtable
define dso_local zeroext i1 @visit_type_q_obj_VSERPORT_CHANGE_arg_members(ptr noundef %v, ptr noundef %obj, ptr noundef %errp) local_unnamed_addr #0 {
entry:
  %call = tail call zeroext i1 @visit_type_str(ptr noundef %v, ptr noundef nonnull @.str.35, ptr noundef %obj, ptr noundef %errp) #5
  br i1 %call, label %if.end, label %return

if.end:                                           ; preds = %entry
  %open = getelementptr inbounds nuw i8, ptr %obj, i64 8
  %call1 = tail call zeroext i1 @visit_type_bool(ptr noundef %v, ptr noundef nonnull @.str.37, ptr noundef nonnull %open, ptr noundef %errp) #5
  br label %return

return:                                           ; preds = %if.end, %entry
  %retval.0 = phi i1 [ false, %entry ], [ %call1, %if.end ]
  ret i1 %retval.0
}